; Function Attrs: mustprogress null_pointer_is_valid sspstrong uwtable
define noundef i32 @_ZN14InterfaceFrame17interfacesPresentEv(ptr noundef align 8 dereferenceable_or_null(208) %0) local_unnamed_addr #2 align 2 {
  %2 = alloca %class.QModelIndex, align 8
  %3 = getelementptr inbounds nuw i8, ptr %0, i64 120
  call void @llvm.lifetime.start.p0(i64 24, ptr nonnull %2) #28
  store i32 -1, ptr %2, align 8
  %4 = getelementptr inbounds nuw i8, ptr %2, i64 4
  store i32 -1, ptr %4, align 4
  %5 = getelementptr inbounds nuw i8, ptr %2, i64 8
  call void @llvm.memset.p0.i64(ptr noundef nonnull align 8 dereferenceable(16) %5, i8 0, i64 16, i1 false)
  %6 = call noundef i32 @_ZNK18InterfaceTreeModel8rowCountERK11QModelIndex(ptr noundef nonnull align 8 dereferenceable_or_null(32) %3, ptr noundef nonnull align 8 dereferenceable(24) %2)
  %7 = getelementptr inbounds nuw i8, ptr %0, i64 48
  %8 = call noundef i32 @_ZN24InterfaceSortFilterModel16interfacesHiddenEv(ptr noundef nonnull align 8 dereferenceable_or_null(72) %7)
  %9 = sub i32 %6, %8
  call void @llvm.lifetime.end.p0(i64 24, ptr nonnull %2) #28
  ret i32 %9
}